(lp0
(S'0316776963'
p1
I158
tp2
a(S'0345339681'
p3
I161
tp4
a(S'0345342968'
p5
I161
tp6
a(S'0385335482'
p7
I163
tp8
a(S'0140293248'
p9
I163
tp10
a(S'0060502258'
p11
I164
tp12
a(S'0440206154'
p13
I166
tp14
a(S'0312291639'
p15
I167
tp16
a(S'0440234743'
p17
I169
tp18
a(S'0316284955'
p19
I171
tp20
a(S'0440214041'
p21
I174
tp22
a(S'0446610038'
p23
I177
tp24
a(S'0345361792'
p25
I179
tp26
a(S'1400034779'
p27
I183
tp28
a(S'0060976845'
p29
I184
tp30
a(S'0439064872'
p31
I189
tp32
a(S'0804106304'
p33
I193
tp34
a(S'0440211727'
p35
I193
tp36
a(S'0345417623'
p37
I194
tp38
a(S'0345370775'
p39
I197
tp40
a(S'0440241073'
p41
I200
tp42
a(S'0385484518'
p43
I200
tp44
a(S'0446605239'
p45
I204
tp46
a(S'043935806X'
p47
I206
tp48
a(S'0671003755'
p49
I207
tp50
a(S'044021145X'
p51
I208
tp52
a(S'0446310786'
p53
I213
tp54
a(S'0440226430'
p55
I213
tp56
a(S'0060930535'
p57
I216
tp58
a(S'0671021001'
p59
I217
tp60
a(S'0156027321'
p61
I223
tp62
a(S'0312278586'
p63
I225
tp64
a(S'0345337662'
p65
I229
tp66
a(S'0375727345'
p67
I229
tp68
a(S'0743418174'
p69
I236
tp70
a(S'0786868716'
p71
I242
tp72
a(S'0316769487'
p73
I242
tp74
a(S'067976402X'
p75
I256
tp76
a(S'0671027360'
p77
I269
tp78
a(S'0316601950'
p79
I270
tp80
a(S'0452282152'
p81
I278
tp82
a(S'044023722X'
p83
I281
tp84
a(S'0446672211'
p85
I295
tp86
a(S'0142001740'
p87
I304
tp88
a(S'059035342X'
p89
I311
tp90
a(S'0060928336'
p91
I315
tp92
a(S'0679781587'
p93
I332
tp94
a(S'0312195516'
p95
I380
tp96
a(S'0385504209'
p97
I483
tp98
a(S'0971880107'
p99
I581
tp100
a.